target datalayout = "e-m:e-p270:32:32-p271:32:32-p272:64:64-i64:64-i128:128-f80:128-n8:16:32:64-S128"
target triple = "x86_64-unknown-linux-gnu"

%struct.tdefl_compressor = type { ptr, ptr, i32, [2 x i32], i32, i32, i32, i32, i32, ptr, ptr, ptr, ptr, i32, i32, i32, i32, i32, i32, i32, i32, i32, i32, i32, i32, i32, i32, ptr, ptr, ptr, ptr, i32, ptr, i64, i64, [33025 x i8], [3 x [288 x i16]], [3 x [288 x i16]], [3 x [288 x i8]], [65536 x i8], [32768 x i16], [32768 x i16], [85196 x i8] }
%struct.mz_zip_archive = type { i64, i64, i32, i32, i32, i32, i64, ptr, ptr, ptr, ptr, ptr, ptr, ptr, ptr, ptr }
%struct.mz_zip_writer_add_state = type { ptr, i64, i64 }
%struct.stat = type { i64, i64, i64, i32, i32, i32, i32, i64, i64, i64, i64, %struct.timespec, %struct.timespec, %struct.timespec, [3 x i64] }
%struct.timespec = type { i64, i64 }
%struct.zip_t = type { %struct.mz_zip_archive, i32, %struct.zip_entry_t }
%struct.zip_entry_t = type { i32, ptr, i64, i64, i32, i64, [30 x i8], i64, i16, %struct.mz_zip_writer_add_state, %struct.tdefl_compressor, i32, i64 }

@.str.15 = private unnamed_addr constant [3 x i8] c"rb\00", align 1

; Function Attrs: nounwind uwtable
define hidden i32 @zip_entry_fwrite(ptr noundef %zip, ptr noundef %filename) #0 {
entry:
  %retval = alloca i32, align 4
  %zip.addr = alloca ptr, align 8
  %filename.addr = alloca ptr, align 8
  %err = alloca i32, align 4
  %n = alloca i64, align 8
  %stream = alloca ptr, align 8
  %buf = alloca [65536 x i8], align 16
  %file_stat = alloca %struct.stat, align 8
  store ptr %zip, ptr %zip.addr, align 8
  store ptr %filename, ptr %filename.addr, align 8
  store i32 0, ptr %err, align 4
  store i64 0, ptr %n, align 8
  store ptr null, ptr %stream, align 8
  %0 = load ptr, ptr %zip.addr, align 8
  %tobool = icmp ne ptr %0, null
  br i1 %tobool, label %if.end, label %if.then

if.then:                                          ; preds = %entry
  store i32 -1, ptr %retval, align 4
  br label %return

if.end:                                           ; preds = %entry
  %arraydecay = getelementptr inbounds [65536 x i8], ptr %buf, i64 0, i64 0
  call void @llvm.memset.p0.i64(ptr align 16 %arraydecay, i8 0, i64 65536, i1 false)
  call void @llvm.memset.p0.i64(ptr align 8 %file_stat, i8 0, i64 144, i1 false)
  %1 = load ptr, ptr %filename.addr, align 8
  %call = call i32 @stat(ptr noundef %1, ptr noundef %file_stat) #10
  %cmp = icmp ne i32 %call, 0
  br i1 %cmp, label %if.then1, label %if.end2

if.then1:                                         ; preds = %if.end
  store i32 -3, ptr %retval, align 4
  br label %return

if.end2:                                          ; preds = %if.end
  %st_mode = getelementptr inbounds %struct.stat, ptr %file_stat, i32 0, i32 3
  %2 = load i32, ptr %st_mode, align 8
  %and = and i32 %2, 128
  %cmp3 = icmp eq i32 %and, 0
  br i1 %cmp3, label %if.then4, label %if.end6

if.then4:                                         ; preds = %if.end2
  %3 = load ptr, ptr %zip.addr, align 8
  %entry5 = getelementptr inbounds %struct.zip_t, ptr %3, i32 0, i32 2
  %external_attr = getelementptr inbounds %struct.zip_entry_t, ptr %entry5, i32 0, i32 11
  %4 = load i32, ptr %external_attr, align 8
  %or = or i32 %4, 1
  store i32 %or, ptr %external_attr, align 8
  br label %if.end6

if.end6:                                          ; preds = %if.then4, %if.end2
  %st_mode7 = getelementptr inbounds %struct.stat, ptr %file_stat, i32 0, i32 3
  %5 = load i32, ptr %st_mode7, align 8
  %and8 = and i32 %5, 65535
  %shl = shl i32 %and8, 16
  %6 = load ptr, ptr %zip.addr, align 8
  %entry9 = getelementptr inbounds %struct.zip_t, ptr %6, i32 0, i32 2
  %external_attr10 = getelementptr inbounds %struct.zip_entry_t, ptr %entry9, i32 0, i32 11
  %7 = load i32, ptr %external_attr10, align 8
  %or11 = or i32 %7, %shl
  store i32 %or11, ptr %external_attr10, align 8
  %st_mtim = getelementptr inbounds %struct.stat, ptr %file_stat, i32 0, i32 12
  %tv_sec = getelementptr inbounds %struct.timespec, ptr %st_mtim, i32 0, i32 0
  %8 = load i64, ptr %tv_sec, align 8
  %9 = load ptr, ptr %zip.addr, align 8
  %entry12 = getelementptr inbounds %struct.zip_t, ptr %9, i32 0, i32 2
  %m_time = getelementptr inbounds %struct.zip_entry_t, ptr %entry12, i32 0, i32 12
  store i64 %8, ptr %m_time, align 8
  %10 = load ptr, ptr %filename.addr, align 8
  %call13 = call noalias ptr @fopen(ptr noundef %10, ptr noundef @.str.15)
  store ptr %call13, ptr %stream, align 8
  %tobool14 = icmp ne ptr %call13, null
  br i1 %tobool14, label %if.end16, label %if.then15

if.then15:                                        ; preds = %if.end6
  store i32 -16, ptr %retval, align 4
  br label %return

if.end16:                                         ; preds = %if.end6
  br label %while.cond

while.cond:                                       ; preds = %if.end24, %if.end16
  %arraydecay17 = getelementptr inbounds [65536 x i8], ptr %buf, i64 0, i64 0
  %11 = load ptr, ptr %stream, align 8
  %call18 = call i64 @fread(ptr noundef %arraydecay17, i64 noundef 1, i64 noundef 65536, ptr noundef %11)
  store i64 %call18, ptr %n, align 8
  %cmp19 = icmp ugt i64 %call18, 0
  br i1 %cmp19, label %while.body, label %while.end

while.body:                                       ; preds = %while.cond
  %12 = load ptr, ptr %zip.addr, align 8
  %arraydecay20 = getelementptr inbounds [65536 x i8], ptr %buf, i64 0, i64 0
  %13 = load i64, ptr %n, align 8
  %call21 = call i32 @zip_entry_write(ptr noundef %12, ptr noundef %arraydecay20, i64 noundef %13)
  %cmp22 = icmp slt i32 %call21, 0
  br i1 %cmp22, label %if.then23, label %if.end24

if.then23:                                        ; preds = %while.body
  store i32 -8, ptr %err, align 4
  br label %while.end

if.end24:                                         ; preds = %while.body
  br label %while.cond, !llvm.loop !110

while.end:                                        ; preds = %if.then23, %while.cond
  %14 = load ptr, ptr %stream, align 8
  %call25 = call i32 @fclose(ptr noundef %14)
  %15 = load i32, ptr %err, align 4
  store i32 %15, ptr %retval, align 4
  br label %return

return:                                           ; preds = %while.end, %if.then15, %if.then1, %if.then
  %16 = load i32, ptr %retval, align 4
  ret i32 %16
}