; Function Attrs: nounwind uwtable
define hidden range(i32 -16, 1) i32 @zip_entry_fwrite(ptr noundef %zip, ptr noundef readonly captures(none) %filename) local_unnamed_addr #4 {
entry:
  %buf = alloca [65536 x i8], align 16
  %file_stat = alloca %struct.stat, align 8
  %tobool.not = icmp eq ptr %zip, null
  br i1 %tobool.not, label %return, label %if.end

if.end:                                           ; preds = %entry
  call void @llvm.memset.p0.i64(ptr noundef nonnull align 16 dereferenceable(65536) %buf, i8 0, i64 65536, i1 false)
  call void @llvm.memset.p0.i64(ptr noundef nonnull align 8 dereferenceable(144) %file_stat, i8 0, i64 144, i1 false)
  %call = call i32 @stat(ptr noundef %filename, ptr noundef nonnull %file_stat) #30
  %cmp.not = icmp eq i32 %call, 0
  br i1 %cmp.not, label %if.end2, label %return

if.end2:                                          ; preds = %if.end
  %st_mode = getelementptr inbounds nuw i8, ptr %file_stat, i64 24
  %0 = load i32, ptr %st_mode, align 8
  %external_attr = getelementptr inbounds nuw i8, ptr %zip, i64 319592
  %1 = load i32, ptr %external_attr, align 8
  %and = lshr i32 %0, 7
  %2 = and i32 %and, 1
  %3 = xor i32 %2, 1
  %4 = or i32 %1, %3
  %and8 = shl i32 %0, 16
  %external_attr10 = getelementptr inbounds nuw i8, ptr %zip, i64 319592
  %or11 = or i32 %4, %and8
  store i32 %or11, ptr %external_attr10, align 8
  %st_mtim = getelementptr inbounds nuw i8, ptr %file_stat, i64 88
  %5 = load i64, ptr %st_mtim, align 8
  %m_time = getelementptr inbounds nuw i8, ptr %zip, i64 319600
  store i64 %5, ptr %m_time, align 8
  %call13 = tail call noalias ptr @fopen(ptr noundef %filename, ptr noundef nonnull @.str.15)
  %tobool14.not = icmp eq ptr %call13, null
  br i1 %tobool14.not, label %return, label %while.cond

while.cond:                                       ; preds = %if.end2, %while.body
  %call18 = call i64 @fread(ptr noundef nonnull %buf, i64 noundef 1, i64 noundef 65536, ptr noundef nonnull %call13)
  %cmp19.not = icmp eq i64 %call18, 0
  br i1 %cmp19.not, label %while.end, label %while.body

while.body:                                       ; preds = %while.cond
  %call21 = call i32 @zip_entry_write(ptr noundef nonnull %zip, ptr noundef nonnull %buf, i64 noundef %call18)
  %cmp22 = icmp slt i32 %call21, 0
  br i1 %cmp22, label %while.end, label %while.cond, !llvm.loop !110

while.end:                                        ; preds = %while.body, %while.cond
  %err.0 = phi i32 [ 0, %while.cond ], [ -8, %while.body ]
  %call25 = call i32 @fclose(ptr noundef nonnull %call13)
  br label %return

return:                                           ; preds = %if.end2, %if.end, %entry, %while.end
  %retval.0 = phi i32 [ %err.0, %while.end ], [ -1, %entry ], [ -3, %if.end ], [ -16, %if.end2 ]
  ret i32 %retval.0
}